target datalayout = "e-m:e-p270:32:32-p271:32:32-p272:64:64-i64:64-i128:128-f80:128-n8:16:32:64-S128"
target triple = "x86_64-unknown-linux-gnu"

%"class.proxygen::SessionHolder" = type { %"class.proxygen::HTTPSessionBase::InfoCallback", %"class.boost::intrusive::list_member_hook", %"class.boost::intrusive::list_member_hook", ptr, ptr, ptr, %"class.std::chrono::time_point", double, i32, [4 x i8], %"class.proxygen::Endpoint", ptr }
%"class.proxygen::HTTPSessionBase::InfoCallback" = type { ptr }
%"class.boost::intrusive::list_member_hook" = type { %"class.boost::intrusive::generic_hook" }
%"class.boost::intrusive::generic_hook" = type { %"struct.boost::intrusive::list_node" }
%"struct.boost::intrusive::list_node" = type { ptr, ptr }
%"class.std::chrono::time_point" = type { %"class.std::chrono::duration" }
%"class.std::chrono::duration" = type { i64 }
%"class.proxygen::Endpoint" = type <{ %"class.std::__cxx11::basic_string", i16, [6 x i8], i64, i8, [7 x i8] }>
%"class.std::__cxx11::basic_string" = type { %"struct.std::__cxx11::basic_string<char>::_Alloc_hider", i64, %union.anon }
%"struct.std::__cxx11::basic_string<char>::_Alloc_hider" = type { ptr }
%union.anon = type { i64, [8 x i8] }

; Function Attrs: mustprogress uwtable
define void @_ZN8proxygen13SessionHolder20onActivateConnectionERKNS_15HTTPSessionBaseE(ptr noundef nonnull align 8 dereferenceable(152) %this, ptr noundef nonnull align 8 dereferenceable(1582) %session) unnamed_addr #4 align 2 {
entry:
  %this.addr = alloca ptr, align 8
  %session.addr = alloca ptr, align 8
  store ptr %this, ptr %this.addr, align 8
  store ptr %session, ptr %session.addr, align 8
  %this1 = load ptr, ptr %this.addr, align 8
  %stats_ = getelementptr inbounds %"class.proxygen::SessionHolder", ptr %this1, i32 0, i32 5
  %0 = load ptr, ptr %stats_, align 8
  %tobool = icmp ne ptr %0, null
  br i1 %tobool, label %if.then, label %if.end

if.then:                                          ; preds = %entry
  %stats_2 = getelementptr inbounds %"class.proxygen::SessionHolder", ptr %this1, i32 0, i32 5
  %1 = load ptr, ptr %stats_2, align 8
  %vtable = load ptr, ptr %1, align 8
  %vfn = getelementptr inbounds ptr, ptr %vtable, i64 4
  %2 = load ptr, ptr %vfn, align 8
  call void %2(ptr noundef nonnull align 8 dereferenceable(8) %1)
  br label %if.end

if.end:                                           ; preds = %if.then, %entry
  %originalSessionInfoCb_ = getelementptr inbounds %"class.proxygen::SessionHolder", ptr %this1, i32 0, i32 11
  %3 = load ptr, ptr %originalSessionInfoCb_, align 8
  %tobool3 = icmp ne ptr %3, null
  br i1 %tobool3, label %if.then4, label %if.end8

if.then4:                                         ; preds = %if.end
  %originalSessionInfoCb_5 = getelementptr inbounds %"class.proxygen::SessionHolder", ptr %this1, i32 0, i32 11
  %4 = load ptr, ptr %originalSessionInfoCb_5, align 8
  %5 = load ptr, ptr %session.addr, align 8
  %vtable6 = load ptr, ptr %4, align 8
  %vfn7 = getelementptr inbounds ptr, ptr %vtable6, i64 13
  %6 = load ptr, ptr %vfn7, align 8
  call void %6(ptr noundef nonnull align 8 dereferenceable(8) %4, ptr noundef nonnull align 8 dereferenceable(1582) %5)
  br label %if.end8

if.end8:                                          ; preds = %if.then4, %if.end
  ret void
}